; Function Attrs: nounwind uwtable
define zeroext i8 @l___private_Lean_Meta_LevelDefEq_0__Lean_Meta_strictOccursMax_visit(ptr noundef %0, ptr noundef %1) local_unnamed_addr #0 {
  br label %3

3:                                                ; preds = %13, %2
  %.016 = phi ptr [ %1, %2 ], [ %17, %13 ]
  %4 = ptrtoint ptr %.016 to i64
  %5 = and i64 %4, 1
  %.not.i = icmp eq i64 %5, 0
  br i1 %.not.i, label %9, label %6

6:                                                ; preds = %3
  %7 = lshr i64 %4, 1
  %8 = trunc i64 %7 to i32
  br label %lean_obj_tag.exit

9:                                                ; preds = %3
  %10 = getelementptr i8, ptr %.016, i64 4
  %.val.i = load i32, ptr %10, align 4
  %11 = lshr i32 %.val.i, 24
  br label %lean_obj_tag.exit

lean_obj_tag.exit:                                ; preds = %6, %9
  %.0.i = phi i32 [ %8, %6 ], [ %11, %9 ]
  %12 = icmp eq i32 %.0.i, 2
  br i1 %12, label %13, label %20

13:                                               ; preds = %lean_obj_tag.exit
  %14 = getelementptr inbounds nuw i8, ptr %.016, i64 8
  %15 = load ptr, ptr %14, align 8, !tbaa !4
  %16 = getelementptr inbounds nuw i8, ptr %.016, i64 16
  %17 = load ptr, ptr %16, align 8, !tbaa !4
  %18 = tail call zeroext i8 @l___private_Lean_Meta_LevelDefEq_0__Lean_Meta_strictOccursMax_visit(ptr noundef %0, ptr noundef %15)
  %19 = icmp eq i8 %18, 0
  br i1 %19, label %3, label %.loopexit

20:                                               ; preds = %lean_obj_tag.exit
  %21 = tail call zeroext i8 @lean_level_eq(ptr noundef %.016, ptr noundef %0) #4
  %22 = icmp eq i8 %21, 0
  br i1 %22, label %23, label %.loopexit

23:                                               ; preds = %20
  %24 = tail call zeroext i8 @l_Lean_Level_occurs(ptr noundef %0, ptr noundef %.016) #4
  br label %.loopexit

.loopexit:                                        ; preds = %13, %23, %20
  %.2 = phi i8 [ %24, %23 ], [ 0, %20 ], [ 1, %13 ]
  ret i8 %.2
}